target datalayout = "e-m:e-p270:32:32-p271:32:32-p272:64:64-i64:64-i128:128-f80:128-n8:16:32:64-S128"
target triple = "x86_64-pc-linux-gnu"

%struct.prolog_state = type { ptr, i32, i32, i32, i32, i32 }
%struct.encoding = type { [4 x ptr], [2 x ptr], ptr, ptr, ptr, ptr, ptr, ptr, ptr, ptr, ptr, ptr, i32, i8, i8 }

@KW_IMPLIED = internal constant [8 x i8] c"IMPLIED\00", align 1
@KW_REQUIRED = internal constant [9 x i8] c"REQUIRED\00", align 1
@KW_FIXED = internal constant [6 x i8] c"FIXED\00", align 1

; Function Attrs: nounwind uwtable
define internal i32 @common(ptr noundef %0, i32 noundef %1) #0 {
  %3 = alloca i32, align 4
  %4 = alloca ptr, align 8
  %5 = alloca i32, align 4
  store ptr %0, ptr %4, align 8, !tbaa !3
  store i32 %1, ptr %5, align 4, !tbaa !14
  %6 = load ptr, ptr %4, align 8, !tbaa !3
  %7 = getelementptr inbounds nuw %struct.prolog_state, ptr %6, i32 0, i32 4
  %8 = load i32, ptr %7, align 4, !tbaa !11
  %9 = icmp ne i32 %8, 0
  br i1 %9, label %14, label %10

10:                                               ; preds = %2
  %11 = load i32, ptr %5, align 4, !tbaa !14
  %12 = icmp eq i32 %11, 28
  br i1 %12, label %13, label %14

13:                                               ; preds = %10
  store i32 59, ptr %3, align 4
  br label %17

14:                                               ; preds = %10, %2
  %15 = load ptr, ptr %4, align 8, !tbaa !3
  %16 = getelementptr inbounds nuw %struct.prolog_state, ptr %15, i32 0, i32 0
  store ptr @error, ptr %16, align 8, !tbaa !8
  store i32 -1, ptr %3, align 4
  br label %17

17:                                               ; preds = %14, %13
  %18 = load i32, ptr %3, align 4
  ret i32 %18
}

; Function Attrs: nounwind uwtable
define internal i32 @attlist8(ptr noundef %0, i32 noundef %1, ptr noundef %2, ptr noundef %3, ptr noundef %4) #0 {
  %6 = alloca i32, align 4
  %7 = alloca ptr, align 8
  %8 = alloca i32, align 4
  %9 = alloca ptr, align 8
  %10 = alloca ptr, align 8
  %11 = alloca ptr, align 8
  store ptr %0, ptr %7, align 8, !tbaa !3
  store i32 %1, ptr %8, align 4, !tbaa !14
  store ptr %2, ptr %9, align 8, !tbaa !15
  store ptr %3, ptr %10, align 8, !tbaa !15
  store ptr %4, ptr %11, align 8, !tbaa !17
  %12 = load i32, ptr %8, align 4, !tbaa !14
  switch i32 %12, label %69 [
    i32 15, label %13
    i32 20, label %14
    i32 27, label %66
  ]

13:                                               ; preds = %5
  store i32 33, ptr %6, align 4
  br label %73

14:                                               ; preds = %5
  %15 = load ptr, ptr %11, align 8, !tbaa !17
  %16 = getelementptr inbounds nuw %struct.encoding, ptr %15, i32 0, i32 2
  %17 = load ptr, ptr %16, align 8, !tbaa !19
  %18 = load ptr, ptr %11, align 8, !tbaa !17
  %19 = load ptr, ptr %9, align 8, !tbaa !15
  %20 = load ptr, ptr %11, align 8, !tbaa !17
  %21 = getelementptr inbounds nuw %struct.encoding, ptr %20, i32 0, i32 12
  %22 = load i32, ptr %21, align 8, !tbaa !21
  %23 = sext i32 %22 to i64
  %24 = getelementptr i8, ptr %19, i64 %23
  %25 = load ptr, ptr %10, align 8, !tbaa !15
  %26 = call i32 %17(ptr noundef %18, ptr noundef %24, ptr noundef %25, ptr noundef @KW_IMPLIED)
  %27 = icmp ne i32 %26, 0
  br i1 %27, label %28, label %31

28:                                               ; preds = %14
  %29 = load ptr, ptr %7, align 8, !tbaa !3
  %30 = getelementptr inbounds nuw %struct.prolog_state, ptr %29, i32 0, i32 0
  store ptr @attlist1, ptr %30, align 8, !tbaa !8
  store i32 35, ptr %6, align 4
  br label %73

31:                                               ; preds = %14
  %32 = load ptr, ptr %11, align 8, !tbaa !17
  %33 = getelementptr inbounds nuw %struct.encoding, ptr %32, i32 0, i32 2
  %34 = load ptr, ptr %33, align 8, !tbaa !19
  %35 = load ptr, ptr %11, align 8, !tbaa !17
  %36 = load ptr, ptr %9, align 8, !tbaa !15
  %37 = load ptr, ptr %11, align 8, !tbaa !17
  %38 = getelementptr inbounds nuw %struct.encoding, ptr %37, i32 0, i32 12
  %39 = load i32, ptr %38, align 8, !tbaa !21
  %40 = sext i32 %39 to i64
  %41 = getelementptr i8, ptr %36, i64 %40
  %42 = load ptr, ptr %10, align 8, !tbaa !15
  %43 = call i32 %34(ptr noundef %35, ptr noundef %41, ptr noundef %42, ptr noundef @KW_REQUIRED)
  %44 = icmp ne i32 %43, 0
  br i1 %44, label %45, label %48

45:                                               ; preds = %31
  %46 = load ptr, ptr %7, align 8, !tbaa !3
  %47 = getelementptr inbounds nuw %struct.prolog_state, ptr %46, i32 0, i32 0
  store ptr @attlist1, ptr %47, align 8, !tbaa !8
  store i32 36, ptr %6, align 4
  br label %73

48:                                               ; preds = %31
  %49 = load ptr, ptr %11, align 8, !tbaa !17
  %50 = getelementptr inbounds nuw %struct.encoding, ptr %49, i32 0, i32 2
  %51 = load ptr, ptr %50, align 8, !tbaa !19
  %52 = load ptr, ptr %11, align 8, !tbaa !17
  %53 = load ptr, ptr %9, align 8, !tbaa !15
  %54 = load ptr, ptr %11, align 8, !tbaa !17
  %55 = getelementptr inbounds nuw %struct.encoding, ptr %54, i32 0, i32 12
  %56 = load i32, ptr %55, align 8, !tbaa !21
  %57 = sext i32 %56 to i64
  %58 = getelementptr i8, ptr %53, i64 %57
  %59 = load ptr, ptr %10, align 8, !tbaa !15
  %60 = call i32 %51(ptr noundef %52, ptr noundef %58, ptr noundef %59, ptr noundef @KW_FIXED)
  %61 = icmp ne i32 %60, 0
  br i1 %61, label %62, label %65

62:                                               ; preds = %48
  %63 = load ptr, ptr %7, align 8, !tbaa !3
  %64 = getelementptr inbounds nuw %struct.prolog_state, ptr %63, i32 0, i32 0
  store ptr @attlist9, ptr %64, align 8, !tbaa !8
  store i32 33, ptr %6, align 4
  br label %73

65:                                               ; preds = %48
  br label %69

66:                                               ; preds = %5
  %67 = load ptr, ptr %7, align 8, !tbaa !3
  %68 = getelementptr inbounds nuw %struct.prolog_state, ptr %67, i32 0, i32 0
  store ptr @attlist1, ptr %68, align 8, !tbaa !8
  store i32 37, ptr %6, align 4
  br label %73

69:                                               ; preds = %5, %65
  %70 = load ptr, ptr %7, align 8, !tbaa !3
  %71 = load i32, ptr %8, align 4, !tbaa !14
  %72 = call i32 @common(ptr noundef %70, i32 noundef %71)
  store i32 %72, ptr %6, align 4
  br label %73

73:                                               ; preds = %69, %66, %62, %45, %28, %13
  %74 = load i32, ptr %6, align 4
  ret i32 %74
}