; Function Attrs: nounwind uwtable
define internal range(i32 -1, 60) i32 @attlist8(ptr noundef captures(none) %0, i32 noundef %1, ptr noundef %2, ptr noundef %3, ptr noundef %4) #1 {
  switch i32 %1, label %26 [
    i32 15, label %common.exit
    i32 20, label %6
    i32 27, label %common.exit.sink.split
  ]

6:                                                ; preds = %5
  %7 = getelementptr inbounds nuw i8, ptr %4, i64 48
  %8 = load ptr, ptr %7, align 8, !tbaa !12
  %9 = getelementptr inbounds nuw i8, ptr %4, i64 128
  %10 = load i32, ptr %9, align 8, !tbaa !14
  %11 = sext i32 %10 to i64
  %12 = getelementptr i8, ptr %2, i64 %11
  %13 = tail call i32 %8(ptr noundef %4, ptr noundef %12, ptr noundef %3, ptr noundef nonnull @KW_IMPLIED) #5
  %.not = icmp eq i32 %13, 0
  br i1 %.not, label %14, label %common.exit.sink.split

14:                                               ; preds = %6
  %15 = load ptr, ptr %7, align 8, !tbaa !12
  %16 = load i32, ptr %9, align 8, !tbaa !14
  %17 = sext i32 %16 to i64
  %18 = getelementptr i8, ptr %2, i64 %17
  %19 = tail call i32 %15(ptr noundef nonnull %4, ptr noundef %18, ptr noundef %3, ptr noundef nonnull @KW_REQUIRED) #5
  %.not22 = icmp eq i32 %19, 0
  br i1 %.not22, label %20, label %common.exit.sink.split

20:                                               ; preds = %14
  %21 = load ptr, ptr %7, align 8, !tbaa !12
  %22 = load i32, ptr %9, align 8, !tbaa !14
  %23 = sext i32 %22 to i64
  %24 = getelementptr i8, ptr %2, i64 %23
  %25 = tail call i32 %21(ptr noundef nonnull %4, ptr noundef %24, ptr noundef %3, ptr noundef nonnull @KW_FIXED) #5
  %.not23 = icmp eq i32 %25, 0
  br i1 %.not23, label %.thread, label %common.exit.sink.split

26:                                               ; preds = %5
  %27 = getelementptr inbounds nuw i8, ptr %0, i64 20
  %28 = load i32, ptr %27, align 4, !tbaa !9
  %29 = icmp eq i32 %28, 0
  %30 = icmp eq i32 %1, 28
  %or.cond.i = and i1 %30, %29
  br i1 %or.cond.i, label %common.exit, label %.thread

.thread:                                          ; preds = %20, %26
  br label %common.exit.sink.split

common.exit.sink.split:                           ; preds = %5, %20, %14, %6, %.thread
  %error.sink = phi ptr [ @error, %.thread ], [ @attlist1, %6 ], [ @attlist1, %14 ], [ @attlist9, %20 ], [ @attlist1, %5 ]
  %.0.ph = phi i32 [ -1, %.thread ], [ 35, %6 ], [ 36, %14 ], [ 33, %20 ], [ 37, %5 ]
  store ptr %error.sink, ptr %0, align 8, !tbaa !3
  br label %common.exit

common.exit:                                      ; preds = %common.exit.sink.split, %26, %5
  %.0 = phi i32 [ 33, %5 ], [ 59, %26 ], [ %.0.ph, %common.exit.sink.split ]
  ret i32 %.0
}